Archive member included because of file (symbol)

C:\PROGRA~2\KPIT\GNURL7~1.02-\rl78-elf/rl78-elf/lib/g14\liboptc.a(strlen.o)
                              ./src/lcd.o (strlen)

Allocating common symbols
Common symbol       size              file

g_uart1_rx_length   0x2               ./src/r_cg_serial.o
g_uart1_rx_count    0x2               ./src/r_cg_serial.o
uart1RxOvrFlag      0x1               ./src/adc.o
uart1RxFlag         0x1               ./src/adc.o
timer_adc_reader_10Hz_interrupt
                    0x1               ./src/adc.o
latest_current_reading
                    0x1               ./src/adc.o
gate_status         0x2               ./src/adc.o
uart1RxBuf          0x10              ./src/adc.o
check_btns          0x1               ./src/adc.o
switch_edge         0x1               ./src/adc.o
ADC_done            0x1               ./src/adc.o
gate_cmd            0x1               ./src/adc.o
gp_uart1_rx_address
                    0x2               ./src/r_cg_serial.o
pwm_counter         0x2               ./src/adc.o
uart1RxCnt          0x2               ./src/adc.o
INTAD_FSM_state     0x1               ./src/adc.o
ir_rxMessage        0x2               ./src/adc.o
collision_det_counter
                    0x1               ./src/adc.o
auto_close          0x1               ./src/adc.o
adc_ready           0x1               ./src/adc.o
gp_uart1_tx_address
                    0x2               ./src/r_cg_serial.o
dataReady           0x1               ./src/adc.o
uart1RxErrFlag      0x1               ./src/adc.o
collision_det       0x1               ./src/adc.o
mode                0x1               ./src/adc.o
uart1TxFlag         0x1               ./src/adc.o
myCounter           0x2               ./src/adc.o
uart1Status         0x2               ./src/adc.o
ADC_value           0x8               ./src/adc.o
ADC_counter         0x1               ./src/adc.o
g_uart1_tx_count    0x2               ./src/r_cg_serial.o
auto_close_cntr     0x1               ./src/adc.o
uart1TxBuf          0x10              ./src/adc.o
dataPrint           0x1               ./src/adc.o
dataResponse        0x1               ./src/adc.o
time_now            0x7               ./src/adc.o
pwm_edge            0x1               ./src/adc.o
initial_current     0x1               ./src/adc.o
GS_PREV_STATE       0x1               ./src/adc.o
uart1TxCnt          0x2               ./src/adc.o
myBuffer            0x10              ./src/adc.o

Memory Configuration

Name             Origin             Length             Attributes
VEC              0x00000000         0x00000004
IVEC             0x00000004         0x000000bc
OPT              0x000000c0         0x00000004
SEC_ID           0x000000c4         0x0000000a
OCDSTAD          0x000000ce         0x0000000a
OCDROM           0x0000fe00         0x00000200
ROM              0x000000d8         0x0000fd28
MIRROR           0x000f2000         0x0000c8ff
RAM              0x000fe900         0x000015ff
*default*        0x00000000         0xffffffff

Linker script and memory map


.vec            0x00000000        0x4
 *(.vec)
 .vec           0x00000000        0x4 ./src/r_cg_vector_table.o
                0x00000000                HardwareVectors

.vects          0x00000004       0x7c
 *(.vects)
 .vects         0x00000004       0x7c ./src/r_cg_vector_table.o
                0x00000004                Vectors

.option_bytes   0x000000c0        0x4
 *(.option_bytes)
 .option_bytes  0x000000c0        0x4 ./src/r_cg_vector_table.o
                0x000000c0                Option_Bytes

.security_id    0x000000c4        0xa
 *(.security_id)
 .security_id   0x000000c4        0xa ./src/r_cg_vector_table.o
                0x000000c4                Security_Id

.lowtext        0x000000d8        0x0
 *(.plt)
 .plt           0x000000d8        0x0 ./src/adc.o
 *(.lowtext)
                0x000000d8                . = ALIGN (0x2)

.tors           0x000000d8        0x0
                0x000000d8                __CTOR_LIST__ = .
                0x000000d8                . = ALIGN (0x2)
                0x000000d8                ___ctors = .
 *(.ctors)
                0x000000d8                ___ctors_end = .
                0x000000d8                __CTOR_END__ = .
                0x000000d8                __DTOR_LIST__ = .
                0x000000d8                ___dtors = .
 *(.dtors)
                0x000000d8                ___dtors_end = .
                0x000000d8                __DTOR_END__ = .
                0x000000d8                _mdata = .

.text           0x000000dc     0x35ce
 *(.text)
 .text          0x000000dc      0x245 ./src/adc.o
                0x000000dc                ADC
                0x00000265                adc_get_reading
                0x0000029d                adc_multi_channel_interrupt_service_routine
                0x000002f9                adc_get_multiple_channels
 .text          0x00000321      0xc4c ./src/global.o
                0x00000321                init
                0x000003be                core
                0x000009c4                displayCharLCD
                0x000009df                welcome
                0x00000afb                msDelay
                0x00000b2b                openGate
                0x00000b6c                closeGate
                0x00000bc0                stopGate
                0x00000bea                echo
                0x00000c07                echoData
                0x00000c2d                buzzerBeep
                0x00000c66                toHex
                0x00000c89                toBCD
                0x00000cf9                pwm
                0x00000d7d                mtrBtn
                0x00000eb0                boardBtn
 .text          0x00000f6d      0x239 ./src/infrared.o
                0x00000f6d                receive
                0x000010d5                IRcmd
 .text          0x000011a6      0x54b ./src/lcd.o
                0x000011a6                startTMR0
                0x000011e1                delayNoInt
                0x00001213                writeByteLcd
                0x00001244                writeNibbleLcd
                0x00001346                initLcd
                0x00001434                testLCDConnections
                0x00001578                lcd_clear
                0x000015cc                print_lcd
                0x00001673                delay
                0x0000168a                word_to_ascii
 .text          0x000016f1      0x283 ./src/r_cg_adc.o
                0x000016f1                R_ADC_Create
                0x00001889                R_ADC_Start
                0x000018d5                R_ADC_Stop
                0x00001921                R_ADC_Set_OperationOn
                0x0000193b                R_ADC_Set_OperationOff
                0x00001955                R_ADC_Get_Result
 .text          0x00001974        0xf ./src/r_cg_adc_user.o
                0x00001974                r_adc_interrupt
 .text          0x00001983       0xbe ./src/r_cg_cgc.o
                0x00001983                R_CGC_Create
 .text          0x00001a41        0x0 ./src/r_cg_cgc_user.o
 .text          0x00001a41      0x32e ./src/r_cg_intc.o
                0x00001a41                R_INTC_Create
                0x00001d09                R_INTC7_Start
                0x00001d3c                R_INTC7_Stop
 .text          0x00001d6f       0x27 ./src/r_cg_intc_user.o
                0x00001d6f                r_intc7_interrupt
 .text          0x00001d96       0x9b ./src/r_cg_pclbuz.o
                0x00001d96                R_PCLBUZ0_Create
                0x00001dfd                R_PCLBUZ0_Start
                0x00001e17                R_PCLBUZ0_Stop
 .text          0x00001e31        0x0 ./src/r_cg_pclbuz_user.o
 .text          0x00001e31       0xb3 ./src/r_cg_port.o
                0x00001e31                R_PORT_Create
 .text          0x00001ee4        0x0 ./src/r_cg_port_user.o
 .text          0x00001ee4      0x43b ./src/r_cg_rtc.o
                0x00001ee4                R_RTC_Create
                0x00001ff2                R_RTC_Start
                0x0000200c                R_RTC_Stop
                0x00002026                R_RTC_Get_CounterValue
                0x000021b5                R_RTC_Set_CounterValue
 .text          0x0000231f        0x0 ./src/r_cg_rtc_user.o
 .text          0x0000231f      0x566 ./src/r_cg_serial.o
                0x0000231f                R_SAU0_Create
                0x00002351                R_UART1_Create
                0x00002624                R_UART1_Start
                0x00002707                R_UART1_Stop
                0x000027c0                R_UART1_Receive
                0x000027f2                R_UART1_Send
 .text          0x00002885      0x143 ./src/r_cg_serial_user.o
                0x00002885                r_uart1_interrupt_receive
                0x00002959                r_uart1_interrupt_send
 .text          0x000029c8      0xb23 ./src/r_cg_timer.o
                0x000029c8                R_TAU0_Create
                0x00002ed7                R_TAU0_Channel0_Start
                0x00002f32                R_TAU0_Channel0_Stop
                0x00002f8d                R_TAU0_Channel1_Lower8bits_Start
                0x00002fe8                R_TAU0_Channel1_Lower8bits_Stop
                0x00003043                R_TAU0_Channel2_Start
                0x0000309e                R_TAU0_Channel2_Stop
                0x000030f9                R_TAU0_Channel3_Start
                0x00003154                R_TAU0_Channel3_Stop
                0x000031af                R_TMR_RD0_Create
                0x000033c7                R_TMR_RD0_Start
                0x00003459                R_TMR_RD0_Stop
 .text          0x000034eb       0xbb ./src/r_cg_timer_user.o
                0x000034eb                r_tau0_channel0_interrupt
                0x000034f7                r_tau0_channel1_interrupt
                0x0000354c                r_tau0_channel2_interrupt
                0x0000355b                r_tau0_channel3_interrupt
                0x0000359a                r_tmr_rd0_interrupt
 .text          0x000035a6        0xc ./src/r_cg_vector_table.o
                0x000035a6                R_Dummy
 .text          0x000035b2       0x60 ./src/r_hardware_setup.o
                0x000035b2                R_Systeminit
                0x00003601                HardwareSetup
 .text          0x00003612        0xe ./src/r_main.o
                0x00003612                main
                0x0000361b                R_MAIN_UserInit
 .text          0x00003620       0x60 ./src/r_reset_program.o
                0x00003622                PowerON_Reset
 .text          0x00003680       0x29 C:\PROGRA~2\KPIT\GNURL7~1.02-\rl78-elf/rl78-elf/lib/g14\liboptc.a(strlen.o)
                0x00003680                strlen
 *(.text.*)
                0x000036a9                etext = .
                0x000036aa                . = ALIGN (0x2)
 *fill*         0x000036a9        0x1 

.init
 *(.init)

.fini
 *(.fini)

.got
 *(.got)
 *(.got.plt)

.rodata         0x000036aa       0x79
                0x000036aa                . = ALIGN (0x2)
 *(.rodata)
 .rodata        0x000036aa       0x10 ./src/adc.o
 .rodata        0x000036ba       0x69 ./src/global.o
 *(.rodata.*)
                0x00003723                _erodata = .

.eh_frame_hdr
 *(.eh_frame_hdr)

.eh_frame
 *(.eh_frame)

.jcr            0x00003723        0x1
 *(.jcr)
                0x00003724                . = ALIGN (0x2)
 *fill*         0x00003723        0x1 

.data           0x000fe900        0x4 load address 0x000000d8
                0x000fe900                . = ALIGN (0x2)
                0x000fe900                _data = .
 *(.data)
 .data          0x000fe900        0x0 ./src/adc.o
 .data          0x000fe900        0x0 ./src/global.o
 .data          0x000fe900        0x3 ./src/infrared.o
 .data          0x000fe903        0x0 ./src/lcd.o
 .data          0x000fe903        0x0 ./src/r_cg_adc.o
 .data          0x000fe903        0x0 ./src/r_cg_adc_user.o
 .data          0x000fe903        0x0 ./src/r_cg_cgc.o
 .data          0x000fe903        0x0 ./src/r_cg_cgc_user.o
 .data          0x000fe903        0x0 ./src/r_cg_intc.o
 .data          0x000fe903        0x0 ./src/r_cg_intc_user.o
 .data          0x000fe903        0x0 ./src/r_cg_pclbuz.o
 .data          0x000fe903        0x0 ./src/r_cg_pclbuz_user.o
 .data          0x000fe903        0x0 ./src/r_cg_port.o
 .data          0x000fe903        0x0 ./src/r_cg_port_user.o
 .data          0x000fe903        0x0 ./src/r_cg_rtc.o
 .data          0x000fe903        0x0 ./src/r_cg_rtc_user.o
 .data          0x000fe903        0x0 ./src/r_cg_serial.o
 .data          0x000fe903        0x0 ./src/r_cg_serial_user.o
 .data          0x000fe903        0x0 ./src/r_cg_timer.o
 .data          0x000fe903        0x0 ./src/r_cg_timer_user.o
 .data          0x000fe903        0x0 ./src/r_cg_vector_table.o
 .data          0x000fe903        0x0 ./src/r_hardware_setup.o
 .data          0x000fe903        0x0 ./src/r_main.o
 .data          0x000fe903        0x0 ./src/r_reset_program.o
 .data          0x000fe903        0x0 C:\PROGRA~2\KPIT\GNURL7~1.02-\rl78-elf/rl78-elf/lib/g14\liboptc.a(strlen.o)
 *(.data.*)
                0x000fe904                . = ALIGN (0x2)
 *fill*         0x000fe903        0x1 
                0x000fe904                _edata = .
                0x00000004                PROVIDE (__romdatacopysize, SIZEOF (.data))

.bss            0x000fe904       0x74 load address 0x000000dc
                0x000fe904                . = ALIGN (0x2)
                0x000fe904                _bss = .
 *(.bss)
 .bss           0x000fe904        0x1 ./src/adc.o
 .bss           0x000fe905        0x0 ./src/global.o
 *fill*         0x000fe905        0x1 
 .bss           0x000fe906        0x2 ./src/infrared.o
 .bss           0x000fe908        0x0 ./src/lcd.o
 .bss           0x000fe908        0x0 ./src/r_cg_adc.o
 .bss           0x000fe908        0x0 ./src/r_cg_adc_user.o
 .bss           0x000fe908        0x0 ./src/r_cg_cgc.o
 .bss           0x000fe908        0x0 ./src/r_cg_cgc_user.o
 .bss           0x000fe908        0x0 ./src/r_cg_intc.o
 .bss           0x000fe908        0x0 ./src/r_cg_intc_user.o
 .bss           0x000fe908        0x0 ./src/r_cg_pclbuz.o
 .bss           0x000fe908        0x0 ./src/r_cg_pclbuz_user.o
 .bss           0x000fe908        0x0 ./src/r_cg_port.o
 .bss           0x000fe908        0x0 ./src/r_cg_port_user.o
 .bss           0x000fe908        0x0 ./src/r_cg_rtc.o
 .bss           0x000fe908        0x0 ./src/r_cg_rtc_user.o
 .bss           0x000fe908        0x0 ./src/r_cg_serial.o
 .bss           0x000fe908        0x0 ./src/r_cg_serial_user.o
 .bss           0x000fe908        0x0 ./src/r_cg_timer.o
 .bss           0x000fe908        0x0 ./src/r_cg_timer_user.o
 .bss           0x000fe908        0x0 ./src/r_cg_vector_table.o
 .bss           0x000fe908        0x0 ./src/r_hardware_setup.o
 .bss           0x000fe908        0x0 ./src/r_main.o
 .bss           0x000fe908        0x0 ./src/r_reset_program.o
 .bss           0x000fe908        0x0 C:\PROGRA~2\KPIT\GNURL7~1.02-\rl78-elf/rl78-elf/lib/g14\liboptc.a(strlen.o)
 *(.bss.**)
                0x000fe908                . = ALIGN (0x2)
 *(COMMON)
 COMMON         0x000fe908       0x66 ./src/adc.o
                0x000fe908                uart1RxOvrFlag
                0x000fe909                uart1RxFlag
                0x000fe90a                timer_adc_reader_10Hz_interrupt
                0x000fe90b                latest_current_reading
                0x000fe90c                gate_status
                0x000fe90e                uart1RxBuf
                0x000fe91e                check_btns
                0x000fe91f                switch_edge
                0x000fe920                ADC_done
                0x000fe921                gate_cmd
                0x000fe922                pwm_counter
                0x000fe924                uart1RxCnt
                0x000fe926                INTAD_FSM_state
                0x000fe928                ir_rxMessage
                0x000fe92a                collision_det_counter
                0x000fe92b                auto_close
                0x000fe92c                adc_ready
                0x000fe92d                dataReady
                0x000fe92e                uart1RxErrFlag
                0x000fe92f                collision_det
                0x000fe930                mode
                0x000fe931                uart1TxFlag
                0x000fe932                myCounter
                0x000fe934                uart1Status
                0x000fe936                ADC_value
                0x000fe93e                ADC_counter
                0x000fe93f                auto_close_cntr
                0x000fe940                uart1TxBuf
                0x000fe950                dataPrint
                0x000fe951                dataResponse
                0x000fe952                time_now
                0x000fe959                pwm_edge
                0x000fe95a                initial_current
                0x000fe95b                GS_PREV_STATE
                0x000fe95c                uart1TxCnt
                0x000fe95e                myBuffer
 COMMON         0x000fe96e        0xa ./src/r_cg_serial.o
                0x000fe96e                g_uart1_rx_length
                0x000fe970                g_uart1_rx_count
                0x000fe972                gp_uart1_rx_address
                0x000fe974                gp_uart1_tx_address
                0x000fe976                g_uart1_tx_count
                0x000fe978                . = ALIGN (0x2)
                0x000fe978                _ebss = .
                0x000fe978                _end = .
                0x00000064                PROVIDE (stack_size, 0x64)

.stack          0x000ffedc        0x0
                0x000ffedc                _stack = .
                0x00000001                ASSERT ((_stack > (_end + stack_size)), Error: Too much data - no room left for the stack)
LOAD ./src/adc.o
LOAD ./src/global.o
LOAD ./src/infrared.o
LOAD ./src/lcd.o
LOAD ./src/r_cg_adc.o
LOAD ./src/r_cg_adc_user.o
LOAD ./src/r_cg_cgc.o
LOAD ./src/r_cg_cgc_user.o
LOAD ./src/r_cg_intc.o
LOAD ./src/r_cg_intc_user.o
LOAD ./src/r_cg_pclbuz.o
LOAD ./src/r_cg_pclbuz_user.o
LOAD ./src/r_cg_port.o
LOAD ./src/r_cg_port_user.o
LOAD ./src/r_cg_rtc.o
LOAD ./src/r_cg_rtc_user.o
LOAD ./src/r_cg_serial.o
LOAD ./src/r_cg_serial_user.o
LOAD ./src/r_cg_timer.o
LOAD ./src/r_cg_timer_user.o
LOAD ./src/r_cg_vector_table.o
LOAD ./src/r_hardware_setup.o
LOAD ./src/r_main.o
LOAD ./src/r_reset_program.o
START GROUP
LOAD C:\PROGRA~2\KPIT\GNURL7~1.02-\rl78-elf/rl78-elf/lib/g14\liboptm.a
LOAD C:\PROGRA~2\KPIT\GNURL7~1.02-\rl78-elf/rl78-elf/lib/g14\liboptc.a
LOAD C:\PROGRA~2\KPIT\GNURL7~1.02-\rl78-elf/lib/gcc/rl78-elf/4.9-GNURL78_v15.02/g14\libgcc.a
END GROUP
OUTPUT(GateController.x elf32-rl78)

.debug_frame    0x00000000      0x9b0
 .debug_frame   0x00000000       0x74 ./src/adc.o
 .debug_frame   0x00000074      0x16c ./src/global.o
 .debug_frame   0x000001e0       0x44 ./src/infrared.o
 .debug_frame   0x00000224       0xec ./src/lcd.o
 .debug_frame   0x00000310       0x74 ./src/r_cg_adc.o
 .debug_frame   0x00000384       0x40 ./src/r_cg_adc_user.o
 .debug_frame   0x000003c4       0x2c ./src/r_cg_cgc.o
 .debug_frame   0x000003f0       0x44 ./src/r_cg_intc.o
 .debug_frame   0x00000434       0x5c ./src/r_cg_intc_user.o
 .debug_frame   0x00000490       0x44 ./src/r_cg_pclbuz.o
 .debug_frame   0x000004d4       0x24 ./src/r_cg_port.o
 .debug_frame   0x000004f8       0x74 ./src/r_cg_rtc.o
 .debug_frame   0x0000056c       0x94 ./src/r_cg_serial.o
 .debug_frame   0x00000600       0xec ./src/r_cg_serial_user.o
 .debug_frame   0x000006ec      0x100 ./src/r_cg_timer.o
 .debug_frame   0x000007ec      0x114 ./src/r_cg_timer_user.o
 .debug_frame   0x00000900       0x40 ./src/r_cg_vector_table.o
 .debug_frame   0x00000940       0x3c ./src/r_hardware_setup.o
 .debug_frame   0x0000097c       0x34 ./src/r_main.o

.debug_info     0x00000000     0x494a
 .debug_info    0x00000000      0x559 ./src/adc.o
 .debug_info    0x00000559      0x8b0 ./src/global.o
 .debug_info    0x00000e09      0x502 ./src/infrared.o
 .debug_info    0x0000130b      0x488 ./src/lcd.o
 .debug_info    0x00001793      0x361 ./src/r_cg_adc.o
 .debug_info    0x00001af4      0x3a9 ./src/r_cg_adc_user.o
 .debug_info    0x00001e9d      0x156 ./src/r_cg_cgc.o
 .debug_info    0x00001ff3       0x48 ./src/r_cg_cgc_user.o
 .debug_info    0x0000203b      0x3a0 ./src/r_cg_intc.o
 .debug_info    0x000023db      0x3a9 ./src/r_cg_intc_user.o
 .debug_info    0x00002784      0x178 ./src/r_cg_pclbuz.o
 .debug_info    0x000028fc       0x48 ./src/r_cg_pclbuz_user.o
 .debug_info    0x00002944      0x28f ./src/r_cg_port.o
 .debug_info    0x00002bd3       0x48 ./src/r_cg_port_user.o
 .debug_info    0x00002c1b      0x328 ./src/r_cg_rtc.o
 .debug_info    0x00002f43       0x48 ./src/r_cg_rtc_user.o
 .debug_info    0x00002f8b      0x483 ./src/r_cg_serial.o
 .debug_info    0x0000340e      0x482 ./src/r_cg_serial_user.o
 .debug_info    0x00003890      0x65c ./src/r_cg_timer.o
 .debug_info    0x00003eec      0x49b ./src/r_cg_timer_user.o
 .debug_info    0x00004387      0x108 ./src/r_cg_vector_table.o
 .debug_info    0x0000448f       0x7d ./src/r_hardware_setup.o
 .debug_info    0x0000450c      0x3ba ./src/r_main.o
 .debug_info    0x000048c6       0x84 ./src/r_reset_program.o

.debug_abbrev   0x00000000     0x126a
 .debug_abbrev  0x00000000      0x173 ./src/adc.o
 .debug_abbrev  0x00000173      0x1ea ./src/global.o
 .debug_abbrev  0x0000035d      0x114 ./src/infrared.o
 .debug_abbrev  0x00000471      0x198 ./src/lcd.o
 .debug_abbrev  0x00000609       0xf1 ./src/r_cg_adc.o
 .debug_abbrev  0x000006fa       0xa4 ./src/r_cg_adc_user.o
 .debug_abbrev  0x0000079e       0x9a ./src/r_cg_cgc.o
 .debug_abbrev  0x00000838       0x1b ./src/r_cg_cgc_user.o
 .debug_abbrev  0x00000853       0xcd ./src/r_cg_intc.o
 .debug_abbrev  0x00000920       0xa4 ./src/r_cg_intc_user.o
 .debug_abbrev  0x000009c4       0x8f ./src/r_cg_pclbuz.o
 .debug_abbrev  0x00000a53       0x1b ./src/r_cg_pclbuz_user.o
 .debug_abbrev  0x00000a6e       0x8f ./src/r_cg_port.o
 .debug_abbrev  0x00000afd       0x1b ./src/r_cg_port_user.o
 .debug_abbrev  0x00000b18      0x13a ./src/r_cg_rtc.o
 .debug_abbrev  0x00000c52       0x1b ./src/r_cg_rtc_user.o
 .debug_abbrev  0x00000c6d      0x147 ./src/r_cg_serial.o
 .debug_abbrev  0x00000db4      0x124 ./src/r_cg_serial_user.o
 .debug_abbrev  0x00000ed8      0x115 ./src/r_cg_timer.o
 .debug_abbrev  0x00000fed       0xed ./src/r_cg_timer_user.o
 .debug_abbrev  0x000010da       0x7c ./src/r_cg_vector_table.o
 .debug_abbrev  0x00001156       0x5c ./src/r_hardware_setup.o
 .debug_abbrev  0x000011b2       0xa4 ./src/r_main.o
 .debug_abbrev  0x00001256       0x14 ./src/r_reset_program.o

.debug_aranges  0x00000000      0x2e0
 .debug_aranges
                0x00000000       0x20 ./src/adc.o
 .debug_aranges
                0x00000020       0x20 ./src/global.o
 .debug_aranges
                0x00000040       0x20 ./src/infrared.o
 .debug_aranges
                0x00000060       0x20 ./src/lcd.o
 .debug_aranges
                0x00000080       0x20 ./src/r_cg_adc.o
 .debug_aranges
                0x000000a0       0x20 ./src/r_cg_adc_user.o
 .debug_aranges
                0x000000c0       0x20 ./src/r_cg_cgc.o
 .debug_aranges
                0x000000e0       0x18 ./src/r_cg_cgc_user.o
 .debug_aranges
                0x000000f8       0x20 ./src/r_cg_intc.o
 .debug_aranges
                0x00000118       0x20 ./src/r_cg_intc_user.o
 .debug_aranges
                0x00000138       0x20 ./src/r_cg_pclbuz.o
 .debug_aranges
                0x00000158       0x18 ./src/r_cg_pclbuz_user.o
 .debug_aranges
                0x00000170       0x20 ./src/r_cg_port.o
 .debug_aranges
                0x00000190       0x18 ./src/r_cg_port_user.o
 .debug_aranges
                0x000001a8       0x20 ./src/r_cg_rtc.o
 .debug_aranges
                0x000001c8       0x18 ./src/r_cg_rtc_user.o
 .debug_aranges
                0x000001e0       0x20 ./src/r_cg_serial.o
 .debug_aranges
                0x00000200       0x20 ./src/r_cg_serial_user.o
 .debug_aranges
                0x00000220       0x20 ./src/r_cg_timer.o
 .debug_aranges
                0x00000240       0x20 ./src/r_cg_timer_user.o
 .debug_aranges
                0x00000260       0x20 ./src/r_cg_vector_table.o
 .debug_aranges
                0x00000280       0x20 ./src/r_hardware_setup.o
 .debug_aranges
                0x000002a0       0x20 ./src/r_main.o
 .debug_aranges
                0x000002c0       0x20 ./src/r_reset_program.o

.debug_line     0x00000000     0x2327
 .debug_line    0x00000000      0x20a ./src/adc.o
 .debug_line    0x0000020a      0x819 ./src/global.o
 .debug_line    0x00000a23      0x1c9 ./src/infrared.o
 .debug_line    0x00000bec      0x35d ./src/lcd.o
 .debug_line    0x00000f49      0x15c ./src/r_cg_adc.o
 .debug_line    0x000010a5       0x9a ./src/r_cg_adc_user.o
 .debug_line    0x0000113f       0xbc ./src/r_cg_cgc.o
 .debug_line    0x000011fb       0x1d ./src/r_cg_cgc_user.o
 .debug_line    0x00001218      0x135 ./src/r_cg_intc.o
 .debug_line    0x0000134d       0xa7 ./src/r_cg_intc_user.o
 .debug_line    0x000013f4       0x95 ./src/r_cg_pclbuz.o
 .debug_line    0x00001489       0x1d ./src/r_cg_pclbuz_user.o
 .debug_line    0x000014a6       0xb1 ./src/r_cg_port.o
 .debug_line    0x00001557       0x1d ./src/r_cg_port_user.o
 .debug_line    0x00001574      0x268 ./src/r_cg_rtc.o
 .debug_line    0x000017dc       0x1d ./src/r_cg_rtc_user.o
 .debug_line    0x000017f9      0x243 ./src/r_cg_serial.o
 .debug_line    0x00001a3c      0x145 ./src/r_cg_serial_user.o
 .debug_line    0x00001b81      0x368 ./src/r_cg_timer.o
 .debug_line    0x00001ee9      0x116 ./src/r_cg_timer_user.o
 .debug_line    0x00001fff       0x68 ./src/r_cg_vector_table.o
 .debug_line    0x00002067       0xb6 ./src/r_hardware_setup.o
 .debug_line    0x0000211d       0xab ./src/r_main.o
 .debug_line    0x000021c8      0x15f ./src/r_reset_program.o

.debug_str      0x00000000      0xefb
 .debug_str     0x00000000      0x408 ./src/adc.o
                                0x426 (size before relaxing)
 .debug_str     0x00000408      0x172 ./src/global.o
                                0x4e9 (size before relaxing)
 .debug_str     0x0000057a       0x84 ./src/infrared.o
                                0x3f8 (size before relaxing)
 .debug_str     0x000005fe       0xf1 ./src/lcd.o
                                0x254 (size before relaxing)
 .debug_str     0x000006ef       0xbe ./src/r_cg_adc.o
                                0x265 (size before relaxing)
 .debug_str     0x000007ad       0x27 ./src/r_cg_adc_user.o
                                0x378 (size before relaxing)
 .debug_str     0x000007d4       0x35 ./src/r_cg_cgc.o
                                0x16d (size before relaxing)
 .debug_str     0x00000809       0x17 ./src/r_cg_cgc_user.o
                                0x13e (size before relaxing)
 .debug_str     0x00000820       0x7a ./src/r_cg_intc.o
                                0x209 (size before relaxing)
 .debug_str     0x0000089a       0x2a ./src/r_cg_intc_user.o
                                0x37b (size before relaxing)
 .debug_str     0x000008c4       0x2e ./src/r_cg_pclbuz.o
                                0x195 (size before relaxing)
 .debug_str     0x000008f2       0x1a ./src/r_cg_pclbuz_user.o
                                0x141 (size before relaxing)
 .debug_str     0x0000090c       0x5b ./src/r_cg_port.o
                                0x1b4 (size before relaxing)
 .debug_str     0x00000967       0x18 ./src/r_cg_port_user.o
                                0x13f (size before relaxing)
 .debug_str     0x0000097f       0xa2 ./src/r_cg_rtc.o
                                0x26c (size before relaxing)
 .debug_str     0x00000a21       0x17 ./src/r_cg_rtc_user.o
                                0x13e (size before relaxing)
 .debug_str     0x00000a38      0x103 ./src/r_cg_serial.o
                                0x2b8 (size before relaxing)
 .debug_str     0x00000b3b       0xc9 ./src/r_cg_serial_user.o
                                0x476 (size before relaxing)
 .debug_str     0x00000c04      0x1bc ./src/r_cg_timer.o
                                0x3cb (size before relaxing)
 .debug_str     0x00000dc0       0x95 ./src/r_cg_timer_user.o
                                0x3f4 (size before relaxing)
 .debug_str     0x00000e55       0x4c ./src/r_cg_vector_table.o
                                0x18c (size before relaxing)
 .debug_str     0x00000ea1       0x35 ./src/r_hardware_setup.o
                                0x15c (size before relaxing)
 .debug_str     0x00000ed6       0x25 ./src/r_main.o
                                0x376 (size before relaxing)

.comment        0x00000000       0x94
 .comment       0x00000000       0x94 ./src/adc.o
                                 0x95 (size before relaxing)
 .comment       0x00000000       0x95 ./src/global.o
 .comment       0x00000000       0x95 ./src/infrared.o
 .comment       0x00000000       0x95 ./src/lcd.o
 .comment       0x00000000       0x95 ./src/r_cg_adc.o
 .comment       0x00000000       0x95 ./src/r_cg_adc_user.o
 .comment       0x00000000       0x95 ./src/r_cg_cgc.o
 .comment       0x00000000       0x95 ./src/r_cg_cgc_user.o
 .comment       0x00000000       0x95 ./src/r_cg_intc.o
 .comment       0x00000000       0x95 ./src/r_cg_intc_user.o
 .comment       0x00000000       0x95 ./src/r_cg_pclbuz.o
 .comment       0x00000000       0x95 ./src/r_cg_pclbuz_user.o
 .comment       0x00000000       0x95 ./src/r_cg_port.o
 .comment       0x00000000       0x95 ./src/r_cg_port_user.o
 .comment       0x00000000       0x95 ./src/r_cg_rtc.o
 .comment       0x00000000       0x95 ./src/r_cg_rtc_user.o
 .comment       0x00000000       0x95 ./src/r_cg_serial.o
 .comment       0x00000000       0x95 ./src/r_cg_serial_user.o
 .comment       0x00000000       0x95 ./src/r_cg_timer.o
 .comment       0x00000000       0x95 ./src/r_cg_timer_user.o
 .comment       0x00000000       0x95 ./src/r_cg_vector_table.o
 .comment       0x00000000       0x95 ./src/r_hardware_setup.o
 .comment       0x00000000       0x95 ./src/r_main.o
 .comment       0x00000000       0x95 C:\PROGRA~2\KPIT\GNURL7~1.02-\rl78-elf/rl78-elf/lib/g14\liboptc.a(strlen.o)
